(dp1
S'generated_hdrs'
p2
c__builtin__
set
p3
((ltRp4
sS'direct_hdrs'
p5
g3
((lp6
S'thirdparty/muduo/net/Buffer.h'
p7
aS'thirdparty/muduo/base/Timestamp.h'
p8
aS'http_server/http_context.h'
p9
atRp10
s.