(dp1
S'generated_hdrs'
p2
c__builtin__
set
p3
((ltRp4
sS'direct_hdrs'
p5
g3
((lp6
S'http_server/http_response.h'
p7
aS'thirdparty/muduo/base/Logging.h'
p8
aS'http_server/http_context.h'
p9
aS'http_server/http_server.h'
p10
atRp11
s.