(dp1
S'private_hdrs'
p2
(dp3
S'thirdparty/muduo-cpp11/net/Callbacks.h'
p4
c__builtin__
set
p5
((lp6
S'thirdparty/muduo-cpp11/net:muduo_net'
p7
atRp8
sS'thirdparty/muduo-cpp11/net/Endian.h'
p9
g5
((lp10
g7
atRp11
sS'thirdparty/muduo-cpp11/net/TimerId.h'
p12
g5
((lp13
g7
atRp14
sS'thirdparty/muduo-cpp11/net/ZlibStream.h'
p15
g5
((lp16
g7
atRp17
ssS'public_incs'
p18
(dp19
sS'public_hdrs'
p20
(dp21
S'thirdparty/muduo/base/TimeZone.h'
p22
g5
((lp23
S'thirdparty/muduo:muduo_base'
p24
atRp25
sS'thirdparty/muduo/base/Condition.h'
p26
g5
((lp27
g24
atRp28
sS'thirdparty/muduo/base/ThreadLocal.h'
p29
g5
((lp30
g24
atRp31
sS'thirdparty/muduo/base/AsyncLogging.h'
p32
g5
((lp33
g24
atRp34
sS'thirdparty/muduo-cpp11/net/EventLoopThread.h'
p35
g5
((lp36
g7
atRp37
sS'thirdparty/muduo/net/TcpClient.h'
p38
g5
((lp39
S'thirdparty/muduo:muduo_net'
p40
atRp41
sS'thirdparty/muduo/base/FileUtil.h'
p42
g5
((lp43
g24
atRp44
sS'thirdparty/muduo/net/Callbacks.h'
p45
g5
((lp46
g40
atRp47
sS'thirdparty/muduo-cpp11/net/poller/EPollPoller.h'
p48
g5
((lp49
g7
atRp50
sS'thirdparty/muduo-cpp11/base/TimeZone.h'
p51
g5
((lp52
S'thirdparty/muduo-cpp11/base:muduo_base'
p53
atRp54
sS'thirdparty/muduo/base/Types.h'
p55
g5
((lp56
g24
atRp57
sS'thirdparty/muduo/net/Endian.h'
p58
g5
((lp59
g40
atRp60
sS'thirdparty/muduo-cpp11/base/Logging.h'
p61
g5
((lp62
g53
atRp63
sS'thirdparty/muduo-cpp11/base/CountDownLatch.h'
p64
g5
((lp65
g53
atRp66
sS'thirdparty/muduo/base/CountDownLatch.h'
p67
g5
((lp68
g24
atRp69
sS'thirdparty/muduo-cpp11/net/Timer.h'
p70
g5
((lp71
g7
atRp72
sS'thirdparty/muduo-cpp11/base/LogStream.h'
p73
g5
((lp74
g53
atRp75
sS'thirdparty/muduo/net/TimerId.h'
p76
g5
((lp77
g40
atRp78
sS'thirdparty/muduo-cpp11/base/CurrentThread.h'
p79
g5
((lp80
g53
atRp81
sS'thirdparty/muduo-cpp11/net/Poller.h'
p82
g5
((lp83
g7
atRp84
sS'thirdparty/muduo-cpp11/net/poller/PollPoller.h'
p85
g5
((lp86
g7
atRp87
sS'thirdparty/muduo/base/ThreadLocalSingleton.h'
p88
g5
((lp89
g24
atRp90
sS'thirdparty/muduo/net/TcpConnection.h'
p91
g5
((lp92
g40
atRp93
sS'thirdparty/muduo/net/EventLoop.h'
p94
g5
((lp95
g40
atRp96
sS'thirdparty/muduo/base/ProcessInfo.h'
p97
g5
((lp98
g24
atRp99
sS'thirdparty/muduo-cpp11/base/Date.h'
p100
g5
((lp101
g53
atRp102
sS'http_server/http_server.h'
p103
g5
((lp104
S'http_server:http_server'
p105
atRp106
sS'thirdparty/muduo-cpp11/base/WeakCallback.h'
p107
g5
((lp108
g53
atRp109
sS'thirdparty/muduo-cpp11/base/Timestamp.h'
p110
g5
((lp111
g53
atRp112
sS'thirdparty/muduo/net/TcpServer.h'
p113
g5
((lp114
g40
atRp115
sS'thirdparty/muduo-cpp11/base/Exception.h'
p116
g5
((lp117
g53
atRp118
sS'thirdparty/muduo-cpp11/base/Thread.h'
p119
g5
((lp120
g53
atRp121
sS'thirdparty/muduo/base/StringPiece.h'
p122
g5
((lp123
g24
atRp124
sS'thirdparty/muduo/base/LogFile.h'
p125
g5
((lp126
g24
atRp127
sS'thirdparty/muduo-cpp11/net/http/HttpServer.h'
p128
g5
((lp129
g7
atRp130
sS'thirdparty/muduo/base/Singleton.h'
p131
g5
((lp132
g24
atRp133
sS'http_server/http_response.h'
p134
g5
((lp135
S'http_server:http_response'
p136
atRp137
sS'thirdparty/muduo/base/GzipFile.h'
p138
g5
((lp139
g24
atRp140
sS'http_server/http_context.h'
p141
g5
((lp142
S'http_server:http_context'
p143
atRp144
sS'thirdparty/muduo-cpp11/base/noncopyable.h'
p145
g5
((lp146
g53
atRp147
sS'thirdparty/muduo/base/Mutex.h'
p148
g5
((lp149
g24
atRp150
sS'thirdparty/muduo/net/Socket.h'
p151
g5
((lp152
g40
atRp153
sS'thirdparty/muduo/base/WeakCallback.h'
p154
g5
((lp155
g24
atRp156
sS'thirdparty/muduo/base/copyable.h'
p157
g5
((lp158
g24
atRp159
sS'thirdparty/muduo-cpp11/base/LogFile.h'
p160
g5
((lp161
g53
atRp162
sS'thirdparty/muduo/net/Connector.h'
p163
g5
((lp164
g40
atRp165
sS'thirdparty/muduo-cpp11/net/Socket.h'
p166
g5
((lp167
g7
atRp168
sS'thirdparty/muduo/net/Channel.h'
p169
g5
((lp170
g40
atRp171
sS'thirdparty/muduo/base/noncopyable.h'
p172
g5
((lp173
g24
atRp174
sS'thirdparty/muduo-cpp11/net/EventLoopThreadPool.h'
p175
g5
((lp176
g7
atRp177
sS'thirdparty/muduo-cpp11/net/TcpConnection.h'
p178
g5
((lp179
g7
atRp180
sS'thirdparty/muduo/net/TimerQueue.h'
p181
g5
((lp182
g40
atRp183
sS'thirdparty/muduo-cpp11/net/Connector.h'
p184
g5
((lp185
g7
atRp186
sS'thirdparty/muduo/base/Date.h'
p187
g5
((lp188
g24
atRp189
sS'thirdparty/muduo/net/InetAddress.h'
p190
g5
((lp191
g40
atRp192
sS'thirdparty/muduo-cpp11/net/SocketsOps.h'
p193
g5
((lp194
g7
atRp195
sS'thirdparty/muduo/base/Atomic.h'
p196
g5
((lp197
g24
atRp198
sS'thirdparty/muduo/net/Timer.h'
p199
g5
((lp200
g40
atRp201
sS'thirdparty/muduo-cpp11/net/TcpServer.h'
p202
g5
((lp203
g7
atRp204
sS'thirdparty/muduo/base/Exception.h'
p205
g5
((lp206
g24
atRp207
sS'thirdparty/muduo-cpp11/net/poller/DefaultPoller.h'
p208
g5
((lp209
g7
atRp210
sS'thirdparty/muduo-cpp11/net/Buffer.h'
p211
g5
((lp212
g7
atRp213
sS'thirdparty/muduo-cpp11/net/http/HttpContext.h'
p214
g5
((lp215
g7
atRp216
sS'http_server/http_request.h'
p217
g5
((lp218
S'http_server:http_request'
p219
atRp220
sS'thirdparty/muduo/base/LogStream.h'
p221
g5
((lp222
g24
atRp223
sS'thirdparty/muduo-cpp11/net/EventLoop.h'
p224
g5
((lp225
g7
atRp226
sS'thirdparty/muduo/net/Poller.h'
p227
g5
((lp228
g40
atRp229
sS'thirdparty/muduo-cpp11/net/TcpClient.h'
p230
g5
((lp231
g7
atRp232
sS'thirdparty/muduo/base/BlockingQueue.h'
p233
g5
((lp234
g24
atRp235
sS'thirdparty/muduo/base/BoundedBlockingQueue.h'
p236
g5
((lp237
g24
atRp238
sS'thirdparty/muduo-cpp11/base/ProcessInfo.h'
p239
g5
((lp240
g53
atRp241
sS'thirdparty/muduo/net/Buffer.h'
p242
g5
((lp243
g40
atRp244
sS'thirdparty/muduo-cpp11/net/Channel.h'
p245
g5
((lp246
g7
atRp247
sS'thirdparty/muduo-cpp11/net/InetAddress.h'
p248
g5
((lp249
g7
atRp250
sS'thirdparty/muduo/base/CurrentThread.h'
p251
g5
((lp252
g24
atRp253
sS'thirdparty/muduo/net/SocketsOps.h'
p254
g5
((lp255
g40
atRp256
sS'thirdparty/muduo/net/Acceptor.h'
p257
g5
((lp258
g40
atRp259
sS'thirdparty/muduo-cpp11/base/FileUtil.h'
p260
g5
((lp261
g53
atRp262
sS'thirdparty/muduo/base/Timestamp.h'
p263
g5
((lp264
g24
atRp265
sS'thirdparty/muduo/base/Thread.h'
p266
g5
((lp267
g24
atRp268
sS'thirdparty/muduo-cpp11/net/TimerQueue.h'
p269
g5
((lp270
g7
atRp271
sS'thirdparty/muduo-cpp11/base/ThreadPool.h'
p272
g5
((lp273
g53
atRp274
sS'thirdparty/muduo/base/Logging.h'
p275
g5
((lp276
g24
atRp277
sS'thirdparty/muduo-cpp11/net/Acceptor.h'
p278
g5
((lp279
g7
atRp280
sS'thirdparty/muduo-cpp11/base/AsyncLogging.h'
p281
g5
((lp282
g53
atRp283
sS'thirdparty/muduo/net/EventLoopThread.h'
p284
g5
((lp285
g40
atRp286
sS'thirdparty/muduo/net/boilerplate.h'
p287
g5
((lp288
g40
atRp289
sS'thirdparty/muduo/net/EventLoopThreadPool.h'
p290
g5
((lp291
g40
atRp292
sS'thirdparty/muduo/base/ThreadPool.h'
p293
g5
((lp294
g24
atRp295
sS'thirdparty/muduo-cpp11/base/Condition.h'
p296
g5
((lp297
g53
atRp298
sS'thirdparty/muduo-cpp11/net/http/HttpResponse.h'
p299
g5
((lp300
g7
atRp301
sS'thirdparty/muduo/net/ZlibStream.h'
p302
g5
((lp303
g40
atRp304
ssS'allowed_undeclared_hdrs'
p305
g5
((ltRp306
s.